; Function Attrs: nounwind uwtable
define void @Emb_ManCollectSuper_rec(ptr noundef readonly captures(none) %0, ptr noundef %1, ptr noundef captures(none) %2, ptr noundef captures(none) %3) local_unnamed_addr #1 {
  %5 = load i64, ptr %1, align 4
  %6 = and i64 %5, 4611686018427387904
  %.not30 = icmp eq i64 %6, 0
  br i1 %.not30, label %.lr.ph, label %.loopexit

.lr.ph:                                           ; preds = %4
  %7 = getelementptr i8, ptr %0, i64 32
  %8 = getelementptr inbounds nuw i8, ptr %3, i64 4
  %.phi.trans.insert.i = getelementptr inbounds nuw i8, ptr %3, i64 8
  br label %9

9:                                                ; preds = %.lr.ph, %tailrecurse
  %10 = phi i64 [ %5, %.lr.ph ], [ %91, %tailrecurse ]
  %.tr2631 = phi ptr [ %1, %.lr.ph ], [ %90, %tailrecurse ]
  %11 = or disjoint i64 %10, 4611686018427387904
  store i64 %11, ptr %.tr2631, align 4
  %.val = load ptr, ptr %7, align 8, !tbaa !48
  %12 = ptrtoint ptr %.tr2631 to i64
  %13 = ptrtoint ptr %.val to i64
  %14 = sub i64 %12, %13
  %15 = sdiv exact i64 %14, 12
  %16 = trunc i64 %15 to i32
  %17 = load i32, ptr %8, align 4, !tbaa !39
  %18 = load i32, ptr %3, align 8, !tbaa !40
  %19 = icmp eq i32 %17, %18
  br i1 %19, label %20, label %.Vec_IntGrow.exit10_crit_edge.i

.Vec_IntGrow.exit10_crit_edge.i:                  ; preds = %9
  %.pre.i = load ptr, ptr %.phi.trans.insert.i, align 8, !tbaa !41
  br label %Vec_IntPush.exit

20:                                               ; preds = %9
  %21 = icmp slt i32 %17, 16
  br i1 %21, label %22, label %29

22:                                               ; preds = %20
  %23 = load ptr, ptr %.phi.trans.insert.i, align 8, !tbaa !41
  %.not9.i.i = icmp eq ptr %23, null
  br i1 %.not9.i.i, label %26, label %24

24:                                               ; preds = %22
  %25 = tail call dereferenceable_or_null(64) ptr @realloc(ptr noundef nonnull %23, i64 noundef 64) #30
  br label %Vec_IntGrow.exit.i

26:                                               ; preds = %22
  %27 = tail call noalias dereferenceable_or_null(64) ptr @malloc(i64 noundef 64) #29
  br label %Vec_IntGrow.exit.i

Vec_IntGrow.exit.i:                               ; preds = %26, %24
  %28 = phi ptr [ %25, %24 ], [ %27, %26 ]
  store ptr %28, ptr %.phi.trans.insert.i, align 8, !tbaa !41
  store i32 16, ptr %3, align 8, !tbaa !40
  br label %Vec_IntPush.exit

29:                                               ; preds = %20
  %30 = shl nuw nsw i32 %17, 1
  %31 = load ptr, ptr %.phi.trans.insert.i, align 8, !tbaa !41
  %.not9.i9.i = icmp eq ptr %31, null
  %32 = zext nneg i32 %30 to i64
  %33 = shl nuw nsw i64 %32, 2
  br i1 %.not9.i9.i, label %36, label %34

34:                                               ; preds = %29
  %35 = tail call ptr @realloc(ptr noundef nonnull %31, i64 noundef %33) #30
  br label %38

36:                                               ; preds = %29
  %37 = tail call noalias ptr @malloc(i64 noundef %33) #29
  br label %38

38:                                               ; preds = %36, %34
  %39 = phi ptr [ %35, %34 ], [ %37, %36 ]
  store ptr %39, ptr %.phi.trans.insert.i, align 8, !tbaa !41
  store i32 %30, ptr %3, align 8, !tbaa !40
  br label %Vec_IntPush.exit

Vec_IntPush.exit:                                 ; preds = %.Vec_IntGrow.exit10_crit_edge.i, %Vec_IntGrow.exit.i, %38
  %40 = phi ptr [ %.pre.i, %.Vec_IntGrow.exit10_crit_edge.i ], [ %39, %38 ], [ %28, %Vec_IntGrow.exit.i ]
  %41 = load i32, ptr %8, align 4, !tbaa !39
  %42 = add nsw i32 %41, 1
  store i32 %42, ptr %8, align 4, !tbaa !39
  %43 = sext i32 %41 to i64
  %44 = getelementptr inbounds i32, ptr %40, i64 %43
  store i32 %16, ptr %44, align 4, !tbaa !9
  %45 = load i64, ptr %.tr2631, align 4
  %46 = and i64 %45, 1073741824
  %.not17 = icmp eq i64 %46, 0
  br i1 %.not17, label %tailrecurse, label %47

47:                                               ; preds = %Vec_IntPush.exit
  %.val18 = load ptr, ptr %7, align 8, !tbaa !48
  %48 = ptrtoint ptr %.val18 to i64
  %49 = sub i64 %12, %48
  %50 = sdiv exact i64 %49, 12
  %51 = trunc i64 %50 to i32
  %52 = getelementptr inbounds nuw i8, ptr %2, i64 4
  %53 = load i32, ptr %52, align 4, !tbaa !39
  %54 = load i32, ptr %2, align 8, !tbaa !40
  %55 = icmp eq i32 %53, %54
  br i1 %55, label %56, label %.Vec_IntGrow.exit10_crit_edge.i19

.Vec_IntGrow.exit10_crit_edge.i19:                ; preds = %47
  %.phi.trans.insert.i20 = getelementptr inbounds nuw i8, ptr %2, i64 8
  %.pre.i21 = load ptr, ptr %.phi.trans.insert.i20, align 8, !tbaa !41
  br label %Vec_IntPush.exit25

56:                                               ; preds = %47
  %57 = icmp slt i32 %53, 16
  br i1 %57, label %58, label %66

58:                                               ; preds = %56
  %59 = getelementptr inbounds nuw i8, ptr %2, i64 8
  %60 = load ptr, ptr %59, align 8, !tbaa !41
  %.not9.i.i23 = icmp eq ptr %60, null
  br i1 %.not9.i.i23, label %63, label %61

61:                                               ; preds = %58
  %62 = tail call dereferenceable_or_null(64) ptr @realloc(ptr noundef nonnull %60, i64 noundef 64) #30
  br label %Vec_IntGrow.exit.i24

63:                                               ; preds = %58
  %64 = tail call noalias dereferenceable_or_null(64) ptr @malloc(i64 noundef 64) #29
  br label %Vec_IntGrow.exit.i24

Vec_IntGrow.exit.i24:                             ; preds = %63, %61
  %65 = phi ptr [ %62, %61 ], [ %64, %63 ]
  store ptr %65, ptr %59, align 8, !tbaa !41
  store i32 16, ptr %2, align 8, !tbaa !40
  br label %Vec_IntPush.exit25

66:                                               ; preds = %56
  %67 = shl nuw nsw i32 %53, 1
  %68 = getelementptr inbounds nuw i8, ptr %2, i64 8
  %69 = load ptr, ptr %68, align 8, !tbaa !41
  %.not9.i9.i22 = icmp eq ptr %69, null
  %70 = zext nneg i32 %67 to i64
  %71 = shl nuw nsw i64 %70, 2
  br i1 %.not9.i9.i22, label %74, label %72

72:                                               ; preds = %66
  %73 = tail call ptr @realloc(ptr noundef nonnull %69, i64 noundef %71) #30
  br label %76

74:                                               ; preds = %66
  %75 = tail call noalias ptr @malloc(i64 noundef %71) #29
  br label %76

76:                                               ; preds = %74, %72
  %77 = phi ptr [ %73, %72 ], [ %75, %74 ]
  store ptr %77, ptr %68, align 8, !tbaa !41
  store i32 %67, ptr %2, align 8, !tbaa !40
  br label %Vec_IntPush.exit25

Vec_IntPush.exit25:                               ; preds = %.Vec_IntGrow.exit10_crit_edge.i19, %Vec_IntGrow.exit.i24, %76
  %78 = phi ptr [ %.pre.i21, %.Vec_IntGrow.exit10_crit_edge.i19 ], [ %77, %76 ], [ %65, %Vec_IntGrow.exit.i24 ]
  %79 = load i32, ptr %52, align 4, !tbaa !39
  %80 = add nsw i32 %79, 1
  store i32 %80, ptr %52, align 4, !tbaa !39
  %81 = sext i32 %79 to i64
  %82 = getelementptr inbounds i32, ptr %78, i64 %81
  store i32 %51, ptr %82, align 4, !tbaa !9
  br label %.loopexit

tailrecurse:                                      ; preds = %Vec_IntPush.exit
  %83 = and i64 %45, 536870911
  %84 = sub nsw i64 0, %83
  %85 = getelementptr inbounds %struct.Gia_Obj_t_, ptr %.tr2631, i64 %84
  tail call void @Emb_ManCollectSuper_rec(ptr noundef nonnull %0, ptr noundef nonnull %85, ptr noundef %2, ptr noundef nonnull %3)
  %86 = load i64, ptr %.tr2631, align 4
  %87 = lshr i64 %86, 32
  %88 = and i64 %87, 536870911
  %89 = sub nsw i64 0, %88
  %90 = getelementptr inbounds %struct.Gia_Obj_t_, ptr %.tr2631, i64 %89
  %91 = load i64, ptr %90, align 4
  %92 = and i64 %91, 4611686018427387904
  %.not = icmp eq i64 %92, 0
  br i1 %.not, label %9, label %.loopexit

.loopexit:                                        ; preds = %tailrecurse, %4, %Vec_IntPush.exit25
  ret void
}